target datalayout = "e-m:e-p270:32:32-p271:32:32-p272:64:64-i64:64-i128:128-f80:128-n8:16:32:64-S128"
target triple = "x86_64-pc-linux-gnu"

%struct.expert_field = type { i32, i32 }

@hf_amqp_0_10_struct32_size = internal global i32 0, align 4
@hf_amqp_0_10_struct32 = internal global i32 0, align 4
@hf_amqp_0_10_array_type = internal global i32 0, align 4
@hf_amqp_0_10_array_element_count = internal global i32 0, align 4
@hf_amqp_0_10_array_string = internal global i32 0, align 4
@ett_amqp_0_10_array = internal global i32 0, align 4
@ei_amqp_size_exceeds_65K = internal global %struct.expert_field zeroinitializer, align 4
@ei_amqp_array_type_unknown = internal global %struct.expert_field zeroinitializer, align 4
@.str.1427 = private unnamed_addr constant [1 x i8] zeroinitializer, align 1
@.str.1520 = private unnamed_addr constant [25 x i8] c" (array of %u element%s)\00", align 1
@.str.1521 = private unnamed_addr constant [2 x i8] c"s\00", align 1

; Function Attrs: null_pointer_is_valid sspstrong uwtable
define internal i32 @amqp_0_10_get_32bit_size_new(ptr noundef %0, ptr noundef %1, ptr noundef %2, i32 noundef %3, i32 noundef %4) #0 {
  %6 = alloca ptr, align 8
  %7 = alloca ptr, align 8
  %8 = alloca ptr, align 8
  %9 = alloca i32, align 4
  %10 = alloca i32, align 4
  %11 = alloca i32, align 4
  %12 = alloca ptr, align 8
  store ptr %0, ptr %6, align 8
  store ptr %1, ptr %7, align 8
  store ptr %2, ptr %8, align 8
  store i32 %3, ptr %9, align 4
  store i32 %4, ptr %10, align 4
  call void @llvm.lifetime.start.p0(i64 4, ptr %11) #11
  call void @llvm.lifetime.start.p0(i64 8, ptr %12) #11
  %13 = load ptr, ptr %6, align 8
  %14 = load i32, ptr %9, align 4
  %15 = load ptr, ptr %8, align 8
  %16 = load i32, ptr %10, align 4
  %17 = call ptr @proto_tree_add_item_ret_uint(ptr noundef %13, i32 noundef %14, ptr noundef %15, i32 noundef %16, i32 noundef 4, i32 noundef 0, ptr noundef %11)
  store ptr %17, ptr %12, align 8
  %18 = load i32, ptr %11, align 4
  %19 = icmp ugt i32 %18, 65535
  br i1 %19, label %20, label %24

20:                                               ; preds = %5
  %21 = load ptr, ptr %7, align 8
  %22 = load ptr, ptr %12, align 8
  %23 = call ptr @expert_add_info(ptr noundef %21, ptr noundef %22, ptr noundef @ei_amqp_size_exceeds_65K)
  store i32 65535, ptr %11, align 4
  br label %24

24:                                               ; preds = %20, %5
  %25 = load i32, ptr %11, align 4
  call void @llvm.lifetime.end.p0(i64 8, ptr %12) #11
  call void @llvm.lifetime.end.p0(i64 4, ptr %11) #11
  ret i32 %25
}

; Function Attrs: null_pointer_is_valid sspstrong uwtable
define internal void @dissect_amqp_0_10_array(ptr noundef %0, ptr noundef %1, i32 noundef %2, ptr noundef %3) #0 {
  %5 = alloca ptr, align 8
  %6 = alloca ptr, align 8
  %7 = alloca i32, align 4
  %8 = alloca ptr, align 8
  %9 = alloca ptr, align 8
  %10 = alloca ptr, align 8
  %11 = alloca ptr, align 8
  %12 = alloca i16, align 2
  %13 = alloca i32, align 4
  %14 = alloca i32, align 4
  %15 = alloca i32, align 4
  %16 = alloca i32, align 4
  %17 = alloca ptr, align 8
  %18 = alloca i32, align 4
  store ptr %0, ptr %5, align 8
  store ptr %1, ptr %6, align 8
  store i32 %2, ptr %7, align 4
  store ptr %3, ptr %8, align 8
  call void @llvm.lifetime.start.p0(i64 8, ptr %9) #11
  call void @llvm.lifetime.start.p0(i64 8, ptr %10) #11
  call void @llvm.lifetime.start.p0(i64 8, ptr %11) #11
  call void @llvm.lifetime.start.p0(i64 2, ptr %12) #11
  call void @llvm.lifetime.start.p0(i64 4, ptr %13) #11
  call void @llvm.lifetime.start.p0(i64 4, ptr %14) #11
  call void @llvm.lifetime.start.p0(i64 4, ptr %15) #11
  call void @llvm.lifetime.start.p0(i64 4, ptr %16) #11
  call void @llvm.lifetime.start.p0(i64 8, ptr %17) #11
  %19 = load ptr, ptr %5, align 8
  %20 = load i32, ptr %7, align 4
  %21 = add i32 %20, 1
  %22 = call i32 @tvb_get_ntohl(ptr noundef %19, i32 noundef %21)
  store i32 %22, ptr %15, align 4
  %23 = load ptr, ptr %8, align 8
  %24 = load i32, ptr @ett_amqp_0_10_array, align 4
  %25 = call ptr @proto_item_add_subtree(ptr noundef %23, i32 noundef %24)
  store ptr %25, ptr %11, align 8
  %26 = load ptr, ptr %8, align 8
  %27 = load i32, ptr %15, align 4
  %28 = load i32, ptr %15, align 4
  %29 = icmp eq i32 %28, 1
  %30 = select i1 %29, ptr @.str.1427, ptr @.str.1521
  call void (ptr, ptr, ...) @proto_item_append_text(ptr noundef %26, ptr noundef @.str.1520, i32 noundef %27, ptr noundef %30)
  %31 = load ptr, ptr %11, align 8
  %32 = load i32, ptr @hf_amqp_0_10_array_type, align 4
  %33 = load ptr, ptr %5, align 8
  %34 = load i32, ptr %7, align 4
  %35 = call ptr @proto_tree_add_item_ret_uint(ptr noundef %31, i32 noundef %32, ptr noundef %33, i32 noundef %34, i32 noundef 1, i32 noundef 0, ptr noundef %13)
  store ptr %35, ptr %9, align 8
  %36 = load i32, ptr %7, align 4
  %37 = add i32 %36, 1
  store i32 %37, ptr %7, align 4
  %38 = load ptr, ptr %11, align 8
  %39 = load i32, ptr @hf_amqp_0_10_array_element_count, align 4
  %40 = load ptr, ptr %5, align 8
  %41 = load i32, ptr %7, align 4
  %42 = call ptr @proto_tree_add_item_ret_uint(ptr noundef %38, i32 noundef %39, ptr noundef %40, i32 noundef %41, i32 noundef 4, i32 noundef 0, ptr noundef %15)
  %43 = load i32, ptr %7, align 4
  %44 = add i32 %43, 4
  store i32 %44, ptr %7, align 4
  store i32 0, ptr %14, align 4
  br label %45

45:                                               ; preds = %114, %4
  %46 = load i32, ptr %14, align 4
  %47 = load i32, ptr %15, align 4
  %48 = icmp ult i32 %46, %47
  br i1 %48, label %49, label %54

49:                                               ; preds = %45
  %50 = load ptr, ptr %5, align 8
  %51 = load i32, ptr %7, align 4
  %52 = call i32 @tvb_reported_length_remaining(ptr noundef %50, i32 noundef %51)
  %53 = icmp sgt i32 %52, 0
  br label %54

54:                                               ; preds = %49, %45
  %55 = phi i1 [ false, %45 ], [ %53, %49 ]
  br i1 %55, label %56, label %117

56:                                               ; preds = %54
  %57 = load i32, ptr %13, align 4
  switch i32 %57, label %109 [
    i32 149, label %58
    i32 171, label %72
  ]

58:                                               ; preds = %56
  %59 = load ptr, ptr %5, align 8
  %60 = load i32, ptr %7, align 4
  %61 = call zeroext i16 @tvb_get_ntohs(ptr noundef %59, i32 noundef %60)
  store i16 %61, ptr %12, align 2
  %62 = load ptr, ptr %11, align 8
  %63 = load i32, ptr @hf_amqp_0_10_array_string, align 4
  %64 = load ptr, ptr %5, align 8
  %65 = load i32, ptr %7, align 4
  %66 = call ptr @proto_tree_add_item(ptr noundef %62, i32 noundef %63, ptr noundef %64, i32 noundef %65, i32 noundef 2, i32 noundef 2)
  %67 = load i16, ptr %12, align 2
  %68 = zext i16 %67 to i32
  %69 = add i32 2, %68
  %70 = load i32, ptr %7, align 4
  %71 = add i32 %70, %69
  store i32 %71, ptr %7, align 4
  br label %113

72:                                               ; preds = %56
  %73 = load ptr, ptr %11, align 8
  %74 = load ptr, ptr %6, align 8
  %75 = load ptr, ptr %5, align 8
  %76 = load i32, ptr @hf_amqp_0_10_struct32_size, align 4
  %77 = load i32, ptr %7, align 4
  %78 = call i32 @amqp_0_10_get_32bit_size_new(ptr noundef %73, ptr noundef %74, ptr noundef %75, i32 noundef %76, i32 noundef %77)
  store i32 %78, ptr %16, align 4
  %79 = load i32, ptr %7, align 4
  %80 = add i32 %79, 4
  store i32 %80, ptr %7, align 4
  %81 = load ptr, ptr %11, align 8
  %82 = load i32, ptr @hf_amqp_0_10_struct32, align 4
  %83 = load ptr, ptr %5, align 8
  %84 = load i32, ptr %7, align 4
  %85 = call ptr @proto_tree_add_item(ptr noundef %81, i32 noundef %82, ptr noundef %83, i32 noundef %84, i32 noundef 2, i32 noundef 0)
  store ptr %85, ptr %10, align 8
  %86 = load ptr, ptr %10, align 8
  %87 = load i32, ptr %16, align 4
  call void @proto_item_set_len(ptr noundef %86, i32 noundef %87)
  %88 = load i32, ptr %16, align 4
  %89 = load ptr, ptr %5, align 8
  %90 = load i32, ptr %7, align 4
  %91 = call i32 @tvb_reported_length_remaining(ptr noundef %89, i32 noundef %90)
  %92 = icmp ugt i32 %88, %91
  br i1 %92, label %93, label %97

93:                                               ; preds = %72
  %94 = load ptr, ptr %5, align 8
  %95 = load i32, ptr %7, align 4
  %96 = call ptr @tvb_new_subset_remaining(ptr noundef %94, i32 noundef %95)
  store ptr %96, ptr %17, align 8
  br label %102

97:                                               ; preds = %72
  %98 = load ptr, ptr %5, align 8
  %99 = load i32, ptr %7, align 4
  %100 = load i32, ptr %16, align 4
  %101 = call ptr @tvb_new_subset_length(ptr noundef %98, i32 noundef %99, i32 noundef %100)
  store ptr %101, ptr %17, align 8
  br label %102

102:                                              ; preds = %97, %93
  %103 = load ptr, ptr %17, align 8
  %104 = load ptr, ptr %6, align 8
  %105 = load ptr, ptr %10, align 8
  call void @dissect_amqp_0_10_struct32(ptr noundef %103, ptr noundef %104, ptr noundef %105)
  %106 = load i32, ptr %16, align 4
  %107 = load i32, ptr %7, align 4
  %108 = add i32 %107, %106
  store i32 %108, ptr %7, align 4
  br label %113

109:                                              ; preds = %56
  %110 = load ptr, ptr %6, align 8
  %111 = load ptr, ptr %9, align 8
  %112 = call ptr @expert_add_info(ptr noundef %110, ptr noundef %111, ptr noundef @ei_amqp_array_type_unknown)
  store i32 1, ptr %18, align 4
  br label %118

113:                                              ; preds = %102, %58
  br label %114

114:                                              ; preds = %113
  %115 = load i32, ptr %14, align 4
  %116 = add i32 %115, 1
  store i32 %116, ptr %14, align 4
  br label %45, !llvm.loop !18

117:                                              ; preds = %54
  store i32 0, ptr %18, align 4
  br label %118

118:                                              ; preds = %117, %109
  call void @llvm.lifetime.end.p0(i64 8, ptr %17) #11
  call void @llvm.lifetime.end.p0(i64 4, ptr %16) #11
  call void @llvm.lifetime.end.p0(i64 4, ptr %15) #11
  call void @llvm.lifetime.end.p0(i64 4, ptr %14) #11
  call void @llvm.lifetime.end.p0(i64 4, ptr %13) #11
  call void @llvm.lifetime.end.p0(i64 2, ptr %12) #11
  call void @llvm.lifetime.end.p0(i64 8, ptr %11) #11
  call void @llvm.lifetime.end.p0(i64 8, ptr %10) #11
  call void @llvm.lifetime.end.p0(i64 8, ptr %9) #11
  %119 = load i32, ptr %18, align 4
  switch i32 %119, label %121 [
    i32 0, label %120
    i32 1, label %120
  ]

120:                                              ; preds = %118, %118
  ret void

121:                                              ; preds = %118
  unreachable
}