; Function Attrs: null_pointer_is_valid sspstrong uwtable
define internal fastcc void @dissect_amqp_0_10_array(ptr noundef %0, ptr noundef %1, i32 noundef %2, ptr noundef %3) unnamed_addr #0 {
  %5 = alloca i32, align 4
  %6 = alloca i32, align 4
  %7 = alloca i32, align 4
  call void @llvm.lifetime.start.p0(i64 4, ptr nonnull %6) #14
  call void @llvm.lifetime.start.p0(i64 4, ptr nonnull %7) #14
  %8 = add i32 %2, 1
  %9 = tail call i32 @tvb_get_ntohl(ptr noundef %0, i32 noundef %8)
  store i32 %9, ptr %7, align 4
  %10 = load i32, ptr @ett_amqp_0_10_array, align 4
  %11 = tail call ptr @proto_item_add_subtree(ptr noundef %3, i32 noundef %10)
  %12 = icmp eq i32 %9, 1
  %13 = select i1 %12, ptr @.str.1427, ptr @.str.1521
  tail call void (ptr, ptr, ...) @proto_item_append_text(ptr noundef %3, ptr noundef nonnull @.str.1520, i32 noundef %9, ptr noundef nonnull %13)
  %14 = load i32, ptr @hf_amqp_0_10_array_type, align 4
  %15 = call ptr @proto_tree_add_item_ret_uint(ptr noundef %11, i32 noundef %14, ptr noundef %0, i32 noundef %2, i32 noundef 1, i32 noundef 0, ptr noundef nonnull %6)
  %16 = load i32, ptr @hf_amqp_0_10_array_element_count, align 4
  %17 = call ptr @proto_tree_add_item_ret_uint(ptr noundef %11, i32 noundef %16, ptr noundef %0, i32 noundef %8, i32 noundef 4, i32 noundef 0, ptr noundef nonnull %7)
  %18 = load i32, ptr %7, align 4
  %.not = icmp eq i32 %18, 0
  br i1 %.not, label %.critedge, label %.lr.ph.preheader

.lr.ph.preheader:                                 ; preds = %4
  %19 = add i32 %2, 5
  br label %.lr.ph

.lr.ph:                                           ; preds = %.lr.ph.preheader, %52
  %.04751 = phi i32 [ %.1, %52 ], [ %19, %.lr.ph.preheader ]
  %.04850 = phi i32 [ %53, %52 ], [ 0, %.lr.ph.preheader ]
  %20 = call i32 @tvb_reported_length_remaining(ptr noundef %0, i32 noundef %.04751)
  %21 = icmp sgt i32 %20, 0
  br i1 %21, label %22, label %.critedge

22:                                               ; preds = %.lr.ph
  %23 = load i32, ptr %6, align 4
  switch i32 %23, label %50 [
    i32 149, label %24
    i32 171, label %31
  ]

24:                                               ; preds = %22
  %25 = call zeroext i16 @tvb_get_ntohs(ptr noundef %0, i32 noundef %.04751)
  %26 = load i32, ptr @hf_amqp_0_10_array_string, align 4
  %27 = call ptr @proto_tree_add_item(ptr noundef %11, i32 noundef %26, ptr noundef %0, i32 noundef %.04751, i32 noundef 2, i32 noundef 2)
  %28 = zext i16 %25 to i32
  %29 = add i32 %.04751, 2
  %30 = add i32 %29, %28
  br label %52

31:                                               ; preds = %22
  %32 = load i32, ptr @hf_amqp_0_10_struct32_size, align 4
  call void @llvm.lifetime.start.p0(i64 4, ptr nonnull %5) #14
  %33 = call ptr @proto_tree_add_item_ret_uint(ptr noundef %11, i32 noundef %32, ptr noundef %0, i32 noundef %.04751, i32 noundef 4, i32 noundef 0, ptr noundef nonnull %5)
  %34 = load i32, ptr %5, align 4
  %35 = icmp ugt i32 %34, 65535
  br i1 %35, label %36, label %amqp_0_10_get_32bit_size_new.exit

36:                                               ; preds = %31
  %37 = call ptr @expert_add_info(ptr noundef %1, ptr noundef %33, ptr noundef nonnull @ei_amqp_size_exceeds_65K)
  br label %amqp_0_10_get_32bit_size_new.exit

amqp_0_10_get_32bit_size_new.exit:                ; preds = %31, %36
  %38 = phi i32 [ 65535, %36 ], [ %34, %31 ]
  call void @llvm.lifetime.end.p0(i64 4, ptr nonnull %5) #14
  %39 = add i32 %.04751, 4
  %40 = load i32, ptr @hf_amqp_0_10_struct32, align 4
  %41 = call ptr @proto_tree_add_item(ptr noundef %11, i32 noundef %40, ptr noundef %0, i32 noundef %39, i32 noundef 2, i32 noundef 0)
  call void @proto_item_set_len(ptr noundef %41, i32 noundef %38)
  %42 = call i32 @tvb_reported_length_remaining(ptr noundef %0, i32 noundef %39)
  %43 = icmp ugt i32 %38, %42
  br i1 %43, label %44, label %46

44:                                               ; preds = %amqp_0_10_get_32bit_size_new.exit
  %45 = call ptr @tvb_new_subset_remaining(ptr noundef %0, i32 noundef %39)
  br label %48

46:                                               ; preds = %amqp_0_10_get_32bit_size_new.exit
  %47 = call ptr @tvb_new_subset_length(ptr noundef %0, i32 noundef %39, i32 noundef %38)
  br label %48

48:                                               ; preds = %46, %44
  %.0 = phi ptr [ %45, %44 ], [ %47, %46 ]
  call fastcc void @dissect_amqp_0_10_struct32(ptr noundef %.0, ptr noundef %1, ptr noundef %41)
  %49 = add i32 %38, %39
  br label %52

50:                                               ; preds = %22
  %51 = call ptr @expert_add_info(ptr noundef %1, ptr noundef %15, ptr noundef nonnull @ei_amqp_array_type_unknown)
  br label %.critedge

52:                                               ; preds = %24, %48
  %.1 = phi i32 [ %49, %48 ], [ %30, %24 ]
  %53 = add nuw i32 %.04850, 1
  %54 = load i32, ptr %7, align 4
  %55 = icmp ult i32 %53, %54
  br i1 %55, label %.lr.ph, label %.critedge, !llvm.loop !17

.critedge:                                        ; preds = %52, %.lr.ph, %4, %50
  call void @llvm.lifetime.end.p0(i64 4, ptr nonnull %7) #14
  call void @llvm.lifetime.end.p0(i64 4, ptr nonnull %6) #14
  ret void
}